target datalayout = "e-m:e-p270:32:32-p271:32:32-p272:64:64-i64:64-i128:128-f80:128-n8:16:32:64-S128"
target triple = "x86_64-pc-linux-gnu"

%struct.MemoryRegion = type { %struct.Object, i8, i8, i8, i8, i8, i8, i8, i8, i8, i8, ptr, ptr, ptr, ptr, ptr, ptr, i32, i128, i64, ptr, i64, i8, i8, i8, i8, ptr, i64, i32, %union.anon, %union.anon.0, %union.anon.1, ptr, i32, ptr, ptr, i8 }
%struct.Object = type { ptr, ptr, ptr, i32, ptr }
%union.anon = type { %struct.QTailQLink }
%struct.QTailQLink = type { ptr, ptr }
%union.anon.0 = type { %struct.QTailQLink }
%union.anon.1 = type { %struct.QTailQLink }
%struct.VFIOPCIDevice = type { %struct.PCIDevice, %struct.VFIODevice, %struct.VFIOINTx, i32, ptr, i64, i32, i64, ptr, i32, ptr, ptr, i32, i32, [6 x %struct.VFIOBAR], ptr, ptr, %struct.PCIHostDeviceAddress, %struct.QemuUUID, %struct.EventNotifier, %struct.EventNotifier, ptr, i32, i32, i32, i32, i32, i32, i32, i32, i32, i32, i32, i8, i8, i8, i8, i8, i8, i8, i8, i8, i8, i8, i8, i8, i8, i32, i8, i8, i8, ptr, %struct.Notifier }
%struct.PCIDevice = type { %struct.DeviceState, i8, i8, ptr, ptr, ptr, ptr, ptr, i32, %struct.PCIReqIDCache, [64 x i8], [7 x %struct.PCIIORegion], %struct.AddressSpace, %struct.MemoryRegion, %struct.MemoryRegion, ptr, ptr, [3 x ptr], i8, i8, i32, i8, i32, ptr, ptr, ptr, ptr, ptr, ptr, %struct.MemoryRegion, %struct.MemoryRegion, %struct.MemoryRegion, ptr, i8, i32, i8, %struct.PCIExpressDevice, ptr, ptr, i32, i8, %struct.MemoryRegion, i32, ptr, ptr, ptr, ptr, i16, %struct.DOECap, ptr, i32, i32 }
%struct.DeviceState = type { %struct.Object, ptr, ptr, i8, i8, i64, i32, i8, ptr, %struct.NamedGPIOListHead, %struct.NamedClockListHead, %struct.BusStateHead, i32, i32, i32, %struct.ResettableState, ptr, %struct.MemReentrancyGuard }
%struct.NamedGPIOListHead = type { ptr }
%struct.NamedClockListHead = type { ptr }
%struct.BusStateHead = type { ptr }
%struct.ResettableState = type { i32, i8, i8 }
%struct.MemReentrancyGuard = type { i8 }
%struct.PCIReqIDCache = type { ptr, i32 }
%struct.PCIIORegion = type { i64, i64, i8, ptr, ptr }
%struct.AddressSpace = type { %struct.rcu_head, ptr, ptr, ptr, i32, i32, ptr, %union.anon.4, %union.anon.5, i64, i64, %struct.QemuMutex, %struct.anon.6 }
%struct.rcu_head = type { ptr, ptr }
%union.anon.4 = type { %struct.QTailQLink }
%union.anon.5 = type { %struct.QTailQLink }
%struct.QemuMutex = type { %union.pthread_mutex_t, i8 }
%union.pthread_mutex_t = type { %struct.__pthread_mutex_s }
%struct.__pthread_mutex_s = type { i32, i32, i32, i32, i32, i16, i16, %struct.__pthread_internal_list }
%struct.__pthread_internal_list = type { ptr, ptr }
%struct.anon.6 = type { ptr }
%struct.PCIExpressDevice = type { i8, i8, i8, i16, %struct.PCIEAERLog, i16, i16, i16, %struct.PCIESriovPF, %struct.PCIESriovVF }
%struct.PCIEAERLog = type { i16, i16, ptr }
%struct.PCIESriovPF = type { i16, [7 x i8], ptr, ptr }
%struct.PCIESriovVF = type { ptr, i16 }
%struct.DOECap = type { ptr, i16, %struct.anon.7, %struct.anon.8, %struct.anon.9, ptr, ptr, i32, i32, i32, ptr, i16, i32 }
%struct.anon.7 = type { i8, i16 }
%struct.anon.8 = type { i8, i8, i8 }
%struct.anon.9 = type { i8, i8, i8, i8 }
%struct.VFIODevice = type { %struct.anon.10, %struct.anon.11, %struct.anon.12, ptr, ptr, ptr, ptr, ptr, i32, i32, i8, i8, i8, i8, i8, i32, i8, ptr, i32, i32, i32, ptr, ptr, i32, i32, i8, i8, i8, ptr, i32, ptr, ptr, %struct.anon.13 }
%struct.anon.10 = type { ptr, ptr }
%struct.anon.11 = type { ptr, ptr }
%struct.anon.12 = type { ptr, ptr }
%struct.anon.13 = type { ptr, ptr }
%struct.VFIOINTx = type { i8, i8, i8, %struct.EventNotifier, %struct.EventNotifier, %struct.PCIINTxRoute, i32, ptr }
%struct.PCIINTxRoute = type { i32, i32 }
%struct.VFIOBAR = type { %struct.VFIORegion, ptr, i64, i8, i8, i8, %struct.anon.14 }
%struct.VFIORegion = type { ptr, i64, ptr, i64, i32, i32, ptr, i8 }
%struct.anon.14 = type { ptr }
%struct.PCIHostDeviceAddress = type { i32, i32, i32, i32 }
%struct.QemuUUID = type { %union.anon.15 }
%union.anon.15 = type { %struct.anon.16 }
%struct.anon.16 = type { i32, i16, i16, i8, i8, [6 x i8] }
%struct.EventNotifier = type { i32, i32, i8 }
%struct.Notifier = type { ptr, %struct.anon.17 }
%struct.anon.17 = type { ptr, ptr }

@.str.7 = private unnamed_addr constant [10 x i8] c"vfio %s: \00", align 1
@.str.221 = private unnamed_addr constant [56 x i8] c"vfio: Unable to init event notifier for error detection\00", align 1

; Function Attrs: nounwind sspstrong uwtable
define internal void @vfio_register_err_notifier(ptr noundef %0) #0 {
  %2 = alloca ptr, align 8
  %3 = alloca ptr, align 8
  %4 = alloca i32, align 4
  %5 = alloca i32, align 4
  store ptr %0, ptr %2, align 8
  call void @llvm.lifetime.start.p0(i64 8, ptr %3) #19
  store ptr null, ptr %3, align 8
  call void @llvm.lifetime.start.p0(i64 4, ptr %4) #19
  store i32 0, ptr %4, align 4, !annotation !4
  %6 = load ptr, ptr %2, align 8
  %7 = getelementptr inbounds nuw %struct.VFIOPCIDevice, ptr %6, i32 0, i32 35
  %8 = load i8, ptr %7, align 2, !range !9, !noundef !10
  %9 = trunc i8 %8 to i1
  br i1 %9, label %11, label %10

10:                                               ; preds = %1
  store i32 1, ptr %5, align 4
  br label %42

11:                                               ; preds = %1
  %12 = load ptr, ptr %2, align 8
  %13 = getelementptr inbounds nuw %struct.VFIOPCIDevice, ptr %12, i32 0, i32 19
  %14 = call i32 @event_notifier_init(ptr noundef %13, i32 noundef 0)
  %15 = icmp ne i32 %14, 0
  br i1 %15, label %16, label %19

16:                                               ; preds = %11
  call void (ptr, ...) @error_report(ptr noundef @.str.221)
  %17 = load ptr, ptr %2, align 8
  %18 = getelementptr inbounds nuw %struct.VFIOPCIDevice, ptr %17, i32 0, i32 35
  store i8 0, ptr %18, align 2
  store i32 1, ptr %5, align 4
  br label %42

19:                                               ; preds = %11
  %20 = load ptr, ptr %2, align 8
  %21 = getelementptr inbounds nuw %struct.VFIOPCIDevice, ptr %20, i32 0, i32 19
  %22 = call i32 @event_notifier_get_fd(ptr noundef %21)
  store i32 %22, ptr %4, align 4
  %23 = load i32, ptr %4, align 4
  %24 = load ptr, ptr %2, align 8
  call void @qemu_set_fd_handler(i32 noundef %23, ptr noundef @vfio_err_notifier_handler, ptr noundef null, ptr noundef %24)
  %25 = load ptr, ptr %2, align 8
  %26 = getelementptr inbounds nuw %struct.VFIOPCIDevice, ptr %25, i32 0, i32 1
  %27 = load i32, ptr %4, align 4
  %28 = call zeroext i1 @vfio_set_irq_signaling(ptr noundef %26, i32 noundef 3, i32 noundef 0, i32 noundef 32, i32 noundef %27, ptr noundef %3)
  br i1 %28, label %41, label %29

29:                                               ; preds = %19
  %30 = load ptr, ptr %3, align 8
  %31 = load ptr, ptr %2, align 8
  %32 = getelementptr inbounds nuw %struct.VFIOPCIDevice, ptr %31, i32 0, i32 1
  %33 = getelementptr inbounds nuw %struct.VFIODevice, ptr %32, i32 0, i32 6
  %34 = load ptr, ptr %33, align 8
  call void (ptr, ptr, ...) @error_reportf_err(ptr noundef %30, ptr noundef @.str.7, ptr noundef %34)
  %35 = load i32, ptr %4, align 4
  %36 = load ptr, ptr %2, align 8
  call void @qemu_set_fd_handler(i32 noundef %35, ptr noundef null, ptr noundef null, ptr noundef %36)
  %37 = load ptr, ptr %2, align 8
  %38 = getelementptr inbounds nuw %struct.VFIOPCIDevice, ptr %37, i32 0, i32 19
  call void @event_notifier_cleanup(ptr noundef %38)
  %39 = load ptr, ptr %2, align 8
  %40 = getelementptr inbounds nuw %struct.VFIOPCIDevice, ptr %39, i32 0, i32 35
  store i8 0, ptr %40, align 2
  br label %41

41:                                               ; preds = %29, %19
  store i32 0, ptr %5, align 4
  br label %42

42:                                               ; preds = %41, %16, %10
  call void @llvm.lifetime.end.p0(i64 4, ptr %4) #19
  call void @llvm.lifetime.end.p0(i64 8, ptr %3) #19
  %43 = load i32, ptr %5, align 4
  switch i32 %43, label %45 [
    i32 0, label %44
    i32 1, label %44
  ]

44:                                               ; preds = %42, %42
  ret void

45:                                               ; preds = %42
  unreachable
}