; Function Attrs: nounwind sspstrong uwtable
define internal fastcc void @vfio_register_err_notifier(ptr noundef %0) unnamed_addr #0 {
  %2 = alloca ptr, align 8
  call void @llvm.lifetime.start.p0(i64 8, ptr nonnull %2) #26
  store ptr null, ptr %2, align 8
  %3 = getelementptr inbounds nuw i8, ptr %0, i64 3750
  %4 = load i8, ptr %3, align 2, !range !6, !noundef !7
  %5 = trunc nuw i8 %4 to i1
  br i1 %5, label %6, label %18

6:                                                ; preds = %1
  %7 = getelementptr inbounds nuw i8, ptr %0, i64 3672
  %8 = tail call i32 @event_notifier_init(ptr noundef nonnull %7, i32 noundef 0) #26
  %.not = icmp eq i32 %8, 0
  br i1 %.not, label %10, label %9

9:                                                ; preds = %6
  tail call void (ptr, ...) @error_report(ptr noundef nonnull @.str.221) #26
  br label %.sink.split

10:                                               ; preds = %6
  %11 = tail call i32 @event_notifier_get_fd(ptr noundef nonnull %7) #26
  tail call void @qemu_set_fd_handler(i32 noundef %11, ptr noundef nonnull @vfio_err_notifier_handler, ptr noundef null, ptr noundef nonnull %0) #26
  %12 = getelementptr inbounds nuw i8, ptr %0, i64 2752
  %13 = call zeroext i1 @vfio_set_irq_signaling(ptr noundef nonnull %12, i32 noundef 3, i32 noundef 0, i32 noundef 32, i32 noundef %11, ptr noundef nonnull %2) #26
  br i1 %13, label %18, label %14

14:                                               ; preds = %10
  %15 = load ptr, ptr %2, align 8
  %16 = getelementptr inbounds nuw i8, ptr %0, i64 2824
  %17 = load ptr, ptr %16, align 8
  call void (ptr, ptr, ...) @error_reportf_err(ptr noundef %15, ptr noundef nonnull @.str.7, ptr noundef %17) #26
  call void @qemu_set_fd_handler(i32 noundef %11, ptr noundef null, ptr noundef null, ptr noundef nonnull %0) #26
  call void @event_notifier_cleanup(ptr noundef nonnull %7) #26
  br label %.sink.split

.sink.split:                                      ; preds = %9, %14
  store i8 0, ptr %3, align 2
  br label %18

18:                                               ; preds = %.sink.split, %10, %1
  call void @llvm.lifetime.end.p0(i64 8, ptr nonnull %2) #26
  ret void
}